target datalayout = "e-m:e-p270:32:32-p271:32:32-p272:64:64-i64:64-i128:128-f80:128-n8:16:32:64-S128"
target triple = "x86_64-pc-linux-gnu"

%struct.bb_state = type { %struct.bb_config, ptr, ptr, ptr, %union.pthread_mutex_t, i64, i64, ptr, i64, i64, i64, ptr, %union.pthread_cond_t, i8, %union.pthread_mutex_t, i64, i32, i32, i64, i64 }
%struct.bb_config = type { ptr, ptr, ptr, ptr, ptr, ptr, ptr, ptr, i32, ptr, ptr, i64, i32, ptr, i32, i32, i32, i32, ptr, ptr, ptr, ptr, i32 }
%union.pthread_cond_t = type { %struct.__pthread_cond_s }
%struct.__pthread_cond_s = type { %union.__atomic_wide_counter, %union.__atomic_wide_counter, [2 x i32], [2 x i32], i32, i32, [2 x i32] }
%union.__atomic_wide_counter = type { i64 }
%union.pthread_mutex_t = type { %struct.__pthread_mutex_s }
%struct.__pthread_mutex_s = type { i32, i32, i32, i32, i32, i16, i16, %struct.__pthread_internal_list }
%struct.__pthread_internal_list = type { ptr, ptr }
%struct.bb_job = type { ptr, i32, ptr, i32, ptr, i32, i32, ptr, i8, ptr, ptr, i64, ptr, i32, i64, i32, i32, i32, i64, i8, i32 }
%struct.bb_buf_t = type { ptr, i32, i8, i8, i8, ptr, ptr, i64, i16, ptr, i8 }

; Function Attrs: nounwind uwtable
define internal void @_bb_job_del2(ptr noundef %0) #0 {
  %2 = alloca ptr, align 8
  %3 = alloca i32, align 4
  store ptr %0, ptr %2, align 8
  call void @llvm.lifetime.start.p0(i64 4, ptr %3) #9
  %4 = load ptr, ptr %2, align 8
  %5 = icmp ne ptr %4, null
  br i1 %5, label %6, label %68

6:                                                ; preds = %1
  %7 = load ptr, ptr %2, align 8
  %8 = getelementptr inbounds nuw %struct.bb_job, ptr %7, i32 0, i32 6
  %9 = load i32, ptr %8, align 4
  %10 = icmp ne i32 %9, -1
  br i1 %10, label %11, label %16

11:                                               ; preds = %6
  %12 = load ptr, ptr %2, align 8
  %13 = getelementptr inbounds nuw %struct.bb_job, ptr %12, i32 0, i32 6
  %14 = load i32, ptr %13, align 4
  %15 = call i32 @close(i32 noundef %14)
  br label %16

16:                                               ; preds = %11, %6
  %17 = load ptr, ptr %2, align 8
  %18 = getelementptr inbounds nuw %struct.bb_job, ptr %17, i32 0, i32 0
  call void @slurm_xfree(ptr noundef %18)
  store i32 0, ptr %3, align 4
  br label %19

19:                                               ; preds = %54, %16
  %20 = load i32, ptr %3, align 4
  %21 = load ptr, ptr %2, align 8
  %22 = getelementptr inbounds nuw %struct.bb_job, ptr %21, i32 0, i32 1
  %23 = load i32, ptr %22, align 8
  %24 = icmp ult i32 %20, %23
  br i1 %24, label %25, label %57

25:                                               ; preds = %19
  %26 = load ptr, ptr %2, align 8
  %27 = getelementptr inbounds nuw %struct.bb_job, ptr %26, i32 0, i32 2
  %28 = load ptr, ptr %27, align 8
  %29 = load i32, ptr %3, align 4
  %30 = sext i32 %29 to i64
  %31 = getelementptr inbounds %struct.bb_buf_t, ptr %28, i64 %30
  %32 = getelementptr inbounds nuw %struct.bb_buf_t, ptr %31, i32 0, i32 0
  call void @slurm_xfree(ptr noundef %32)
  %33 = load ptr, ptr %2, align 8
  %34 = getelementptr inbounds nuw %struct.bb_job, ptr %33, i32 0, i32 2
  %35 = load ptr, ptr %34, align 8
  %36 = load i32, ptr %3, align 4
  %37 = sext i32 %36 to i64
  %38 = getelementptr inbounds %struct.bb_buf_t, ptr %35, i64 %37
  %39 = getelementptr inbounds nuw %struct.bb_buf_t, ptr %38, i32 0, i32 5
  call void @slurm_xfree(ptr noundef %39)
  %40 = load ptr, ptr %2, align 8
  %41 = getelementptr inbounds nuw %struct.bb_job, ptr %40, i32 0, i32 2
  %42 = load ptr, ptr %41, align 8
  %43 = load i32, ptr %3, align 4
  %44 = sext i32 %43 to i64
  %45 = getelementptr inbounds %struct.bb_buf_t, ptr %42, i64 %44
  %46 = getelementptr inbounds nuw %struct.bb_buf_t, ptr %45, i32 0, i32 6
  call void @slurm_xfree(ptr noundef %46)
  %47 = load ptr, ptr %2, align 8
  %48 = getelementptr inbounds nuw %struct.bb_job, ptr %47, i32 0, i32 2
  %49 = load ptr, ptr %48, align 8
  %50 = load i32, ptr %3, align 4
  %51 = sext i32 %50 to i64
  %52 = getelementptr inbounds %struct.bb_buf_t, ptr %49, i64 %51
  %53 = getelementptr inbounds nuw %struct.bb_buf_t, ptr %52, i32 0, i32 9
  call void @slurm_xfree(ptr noundef %53)
  br label %54

54:                                               ; preds = %25
  %55 = load i32, ptr %3, align 4
  %56 = add nsw i32 %55, 1
  store i32 %56, ptr %3, align 4
  br label %19, !llvm.loop !16

57:                                               ; preds = %19
  %58 = load ptr, ptr %2, align 8
  %59 = getelementptr inbounds nuw %struct.bb_job, ptr %58, i32 0, i32 2
  call void @slurm_xfree(ptr noundef %59)
  %60 = load ptr, ptr %2, align 8
  %61 = getelementptr inbounds nuw %struct.bb_job, ptr %60, i32 0, i32 4
  call void @slurm_xfree(ptr noundef %61)
  %62 = load ptr, ptr %2, align 8
  %63 = getelementptr inbounds nuw %struct.bb_job, ptr %62, i32 0, i32 7
  call void @slurm_xfree(ptr noundef %63)
  %64 = load ptr, ptr %2, align 8
  %65 = getelementptr inbounds nuw %struct.bb_job, ptr %64, i32 0, i32 10
  call void @slurm_xfree(ptr noundef %65)
  %66 = load ptr, ptr %2, align 8
  %67 = getelementptr inbounds nuw %struct.bb_job, ptr %66, i32 0, i32 12
  call void @slurm_xfree(ptr noundef %67)
  call void @slurm_xfree(ptr noundef %2)
  br label %68

68:                                               ; preds = %57, %1
  call void @llvm.lifetime.end.p0(i64 4, ptr %3) #9
  ret void
}

; Function Attrs: nounwind uwtable
define dso_local void @bb_job_del(ptr noundef %0, i32 noundef %1) #0 {
  %3 = alloca ptr, align 8
  %4 = alloca i32, align 4
  %5 = alloca i32, align 4
  %6 = alloca ptr, align 8
  %7 = alloca ptr, align 8
  %8 = alloca i32, align 4
  store ptr %0, ptr %3, align 8
  store i32 %1, ptr %4, align 4
  call void @llvm.lifetime.start.p0(i64 4, ptr %5) #9
  %9 = load i32, ptr %4, align 4
  %10 = urem i32 %9, 100
  store i32 %10, ptr %5, align 4
  call void @llvm.lifetime.start.p0(i64 8, ptr %6) #9
  call void @llvm.lifetime.start.p0(i64 8, ptr %7) #9
  %11 = load ptr, ptr %3, align 8
  %12 = getelementptr inbounds nuw %struct.bb_state, ptr %11, i32 0, i32 2
  %13 = load ptr, ptr %12, align 8
  %14 = load i32, ptr %5, align 4
  %15 = sext i32 %14 to i64
  %16 = getelementptr inbounds ptr, ptr %13, i64 %15
  store ptr %16, ptr %7, align 8
  %17 = load ptr, ptr %3, align 8
  %18 = getelementptr inbounds nuw %struct.bb_state, ptr %17, i32 0, i32 2
  %19 = load ptr, ptr %18, align 8
  %20 = load i32, ptr %5, align 4
  %21 = sext i32 %20 to i64
  %22 = getelementptr inbounds ptr, ptr %19, i64 %21
  %23 = load ptr, ptr %22, align 8
  store ptr %23, ptr %6, align 8
  br label %24

24:                                               ; preds = %41, %2
  %25 = load ptr, ptr %6, align 8
  %26 = icmp ne ptr %25, null
  br i1 %26, label %27, label %47

27:                                               ; preds = %24
  %28 = load ptr, ptr %6, align 8
  %29 = getelementptr inbounds nuw %struct.bb_job, ptr %28, i32 0, i32 3
  %30 = load i32, ptr %29, align 8
  %31 = load i32, ptr %4, align 4
  %32 = icmp eq i32 %30, %31
  br i1 %32, label %33, label %41

33:                                               ; preds = %27
  %34 = load ptr, ptr %6, align 8
  %35 = getelementptr inbounds nuw %struct.bb_job, ptr %34, i32 0, i32 5
  store i32 0, ptr %35, align 8
  %36 = load ptr, ptr %6, align 8
  %37 = getelementptr inbounds nuw %struct.bb_job, ptr %36, i32 0, i32 9
  %38 = load ptr, ptr %37, align 8
  %39 = load ptr, ptr %7, align 8
  store ptr %38, ptr %39, align 8
  %40 = load ptr, ptr %6, align 8
  call void @_bb_job_del2(ptr noundef %40)
  store i32 1, ptr %8, align 4
  br label %48

41:                                               ; preds = %27
  %42 = load ptr, ptr %6, align 8
  %43 = getelementptr inbounds nuw %struct.bb_job, ptr %42, i32 0, i32 9
  store ptr %43, ptr %7, align 8
  %44 = load ptr, ptr %6, align 8
  %45 = getelementptr inbounds nuw %struct.bb_job, ptr %44, i32 0, i32 9
  %46 = load ptr, ptr %45, align 8
  store ptr %46, ptr %6, align 8
  br label %24, !llvm.loop !45

47:                                               ; preds = %24
  store i32 0, ptr %8, align 4
  br label %48

48:                                               ; preds = %47, %33
  call void @llvm.lifetime.end.p0(i64 8, ptr %7) #9
  call void @llvm.lifetime.end.p0(i64 8, ptr %6) #9
  call void @llvm.lifetime.end.p0(i64 4, ptr %5) #9
  %49 = load i32, ptr %8, align 4
  switch i32 %49, label %51 [
    i32 0, label %50
    i32 1, label %50
  ]

50:                                               ; preds = %48, %48
  ret void

51:                                               ; preds = %48
  unreachable
}