; Function Attrs: nounwind uwtable
define dso_local void @bb_job_del(ptr noundef readonly captures(none) %0, i32 noundef %1) local_unnamed_addr #0 {
  %3 = alloca ptr, align 8
  %4 = urem i32 %1, 100
  %5 = getelementptr inbounds nuw i8, ptr %0, i64 176
  %6 = load ptr, ptr %5, align 8
  %7 = zext nneg i32 %4 to i64
  %8 = getelementptr inbounds nuw ptr, ptr %6, i64 %7
  %.01316 = load ptr, ptr %8, align 8
  %.not17 = icmp eq ptr %.01316, null
  br i1 %.not17, label %.loopexit, label %.lr.ph.preheader

.lr.ph.preheader:                                 ; preds = %2
  %9 = getelementptr inbounds nuw i8, ptr %.01316, i64 24
  %10 = load i32, ptr %9, align 8
  %11 = icmp eq i32 %10, %1
  br i1 %11, label %.lr.ph._crit_edge, label %.lr.ph27

.lr.ph:                                           ; preds = %.lr.ph27
  %12 = getelementptr inbounds nuw i8, ptr %.013, i64 24
  %13 = load i32, ptr %12, align 8
  %14 = icmp eq i32 %13, %1
  br i1 %14, label %.lr.ph._crit_edge.loopexit, label %.lr.ph27, !llvm.loop !45

.lr.ph._crit_edge.loopexit:                       ; preds = %.lr.ph
  %15 = getelementptr inbounds nuw i8, ptr %.0131926, i64 64
  br label %.lr.ph._crit_edge

.lr.ph._crit_edge:                                ; preds = %.lr.ph._crit_edge.loopexit, %.lr.ph.preheader
  %.01319.lcssa = phi ptr [ %.01316, %.lr.ph.preheader ], [ %.013, %.lr.ph._crit_edge.loopexit ]
  %.018.lcssa = phi ptr [ %8, %.lr.ph.preheader ], [ %15, %.lr.ph._crit_edge.loopexit ]
  %16 = getelementptr inbounds nuw i8, ptr %.01319.lcssa, i64 40
  store i32 0, ptr %16, align 8
  %17 = getelementptr inbounds nuw i8, ptr %.01319.lcssa, i64 64
  %18 = load ptr, ptr %17, align 8
  store ptr %18, ptr %.018.lcssa, align 8
  call void @llvm.lifetime.start.p0(i64 8, ptr nonnull %3)
  store ptr %.01319.lcssa, ptr %3, align 8
  %19 = getelementptr inbounds nuw i8, ptr %.01319.lcssa, i64 44
  %20 = load i32, ptr %19, align 4
  %.not.i = icmp eq i32 %20, -1
  br i1 %.not.i, label %23, label %21

21:                                               ; preds = %.lr.ph._crit_edge
  %22 = tail call i32 @close(i32 noundef %20) #17
  br label %23

23:                                               ; preds = %21, %.lr.ph._crit_edge
  tail call void @slurm_xfree(ptr noundef nonnull %.01319.lcssa) #17
  %24 = getelementptr inbounds nuw i8, ptr %.01319.lcssa, i64 8
  %25 = load i32, ptr %24, align 8
  %.not9.i = icmp eq i32 %25, 0
  br i1 %.not9.i, label %_bb_job_del2.exit, label %.lr.ph.i

.lr.ph.i:                                         ; preds = %23
  %26 = getelementptr inbounds nuw i8, ptr %.01319.lcssa, i64 16
  br label %27

27:                                               ; preds = %27, %.lr.ph.i
  %indvars.iv.i = phi i64 [ 0, %.lr.ph.i ], [ %indvars.iv.next.i, %27 ]
  %28 = load ptr, ptr %26, align 8
  %29 = getelementptr inbounds nuw %struct.bb_buf_t, ptr %28, i64 %indvars.iv.i
  tail call void @slurm_xfree(ptr noundef %29) #17
  %30 = load ptr, ptr %26, align 8
  %31 = getelementptr inbounds nuw %struct.bb_buf_t, ptr %30, i64 %indvars.iv.i, i32 5
  tail call void @slurm_xfree(ptr noundef nonnull %31) #17
  %32 = load ptr, ptr %26, align 8
  %33 = getelementptr inbounds nuw %struct.bb_buf_t, ptr %32, i64 %indvars.iv.i, i32 6
  tail call void @slurm_xfree(ptr noundef nonnull %33) #17
  %34 = load ptr, ptr %26, align 8
  %35 = getelementptr inbounds nuw %struct.bb_buf_t, ptr %34, i64 %indvars.iv.i, i32 9
  tail call void @slurm_xfree(ptr noundef nonnull %35) #17
  %indvars.iv.next.i = add nuw nsw i64 %indvars.iv.i, 1
  %36 = load i32, ptr %24, align 8
  %37 = zext i32 %36 to i64
  %38 = icmp samesign ult i64 %indvars.iv.next.i, %37
  br i1 %38, label %27, label %_bb_job_del2.exit, !llvm.loop !12

_bb_job_del2.exit:                                ; preds = %27, %23
  %39 = getelementptr inbounds nuw i8, ptr %.01319.lcssa, i64 16
  tail call void @slurm_xfree(ptr noundef nonnull %39) #17
  %40 = getelementptr inbounds nuw i8, ptr %.01319.lcssa, i64 32
  tail call void @slurm_xfree(ptr noundef nonnull %40) #17
  %41 = getelementptr inbounds nuw i8, ptr %.01319.lcssa, i64 48
  tail call void @slurm_xfree(ptr noundef nonnull %41) #17
  %42 = getelementptr inbounds nuw i8, ptr %.01319.lcssa, i64 72
  tail call void @slurm_xfree(ptr noundef nonnull %42) #17
  %43 = getelementptr inbounds nuw i8, ptr %.01319.lcssa, i64 88
  tail call void @slurm_xfree(ptr noundef nonnull %43) #17
  call void @slurm_xfree(ptr noundef nonnull %3) #17
  call void @llvm.lifetime.end.p0(i64 8, ptr nonnull %3)
  br label %.loopexit

.lr.ph27:                                         ; preds = %.lr.ph.preheader, %.lr.ph
  %.0131926 = phi ptr [ %.013, %.lr.ph ], [ %.01316, %.lr.ph.preheader ]
  %44 = getelementptr inbounds nuw i8, ptr %.0131926, i64 64
  %.013 = load ptr, ptr %44, align 8
  %.not = icmp eq ptr %.013, null
  br i1 %.not, label %.loopexit, label %.lr.ph, !llvm.loop !45

.loopexit:                                        ; preds = %.lr.ph27, %2, %_bb_job_del2.exit
  ret void
}